; Function Attrs: nounwind uwtable
define hidden ptr @_cmsStageAllocXYZ2Lab(ptr noundef %0) local_unnamed_addr #0 {
  %2 = tail call ptr @_cmsMallocZero(ptr noundef %0, i32 noundef 64) #18
  %3 = icmp eq ptr %2, null
  br i1 %3, label %_cmsStageAllocPlaceholder.exit, label %4

4:                                                ; preds = %1
  store ptr %0, ptr %2, align 8
  %5 = getelementptr inbounds i8, ptr %2, i64 8
  store <4 x i32> <i32 1815246880, i32 1815246880, i32 3, i32 3>, ptr %5, align 8
  %6 = getelementptr inbounds i8, ptr %2, i64 24
  store ptr @EvaluateXYZ2Lab, ptr %6, align 8
  %7 = getelementptr inbounds i8, ptr %2, i64 32
  tail call void @llvm.memset.p0.i64(ptr noundef nonnull align 8 dereferenceable(24) %7, i8 0, i64 24, i1 false)
  br label %_cmsStageAllocPlaceholder.exit

_cmsStageAllocPlaceholder.exit:                   ; preds = %1, %4
  ret ptr %2
}